target datalayout = "e-m:e-p270:32:32-p271:32:32-p272:64:64-i64:64-i128:128-f80:128-n8:16:32:64-S128"
target triple = "x86_64-unknown-linux-gnu"

%"class.icu_75::UObject" = type { ptr }
%"class.icu_75::Format" = type <{ %"class.icu_75::UObject", [157 x i8], [157 x i8], [6 x i8] }>

@_ZTVN6icu_757UObjectE = external unnamed_addr constant { [5 x ptr] }, align 8

; Function Attrs: mustprogress nounwind uwtable
define noundef nonnull align 8 dereferenceable(322) ptr @_ZN6icu_756FormataSERKS0_(ptr noundef nonnull align 8 dereferenceable(322) %this, ptr noundef nonnull align 8 dereferenceable(322) %that) #0 align 2 {
entry:
  %this.addr = alloca ptr, align 8
  %that.addr = alloca ptr, align 8
  store ptr %this, ptr %this.addr, align 8
  store ptr %that, ptr %that.addr, align 8
  %this1 = load ptr, ptr %this.addr, align 8
  %0 = load ptr, ptr %that.addr, align 8
  %cmp = icmp ne ptr %this1, %0
  br i1 %cmp, label %if.then, label %if.end

if.then:                                          ; preds = %entry
  %validLocale = getelementptr inbounds %"class.icu_75::Format", ptr %this1, i32 0, i32 2
  %arraydecay = getelementptr inbounds [157 x i8], ptr %validLocale, i64 0, i64 0
  %1 = load ptr, ptr %that.addr, align 8
  %validLocale2 = getelementptr inbounds %"class.icu_75::Format", ptr %1, i32 0, i32 2
  %arraydecay3 = getelementptr inbounds [157 x i8], ptr %validLocale2, i64 0, i64 0
  %call = call ptr @strcpy(ptr noundef %arraydecay, ptr noundef %arraydecay3) #6
  %actualLocale = getelementptr inbounds %"class.icu_75::Format", ptr %this1, i32 0, i32 1
  %arraydecay4 = getelementptr inbounds [157 x i8], ptr %actualLocale, i64 0, i64 0
  %2 = load ptr, ptr %that.addr, align 8
  %actualLocale5 = getelementptr inbounds %"class.icu_75::Format", ptr %2, i32 0, i32 1
  %arraydecay6 = getelementptr inbounds [157 x i8], ptr %actualLocale5, i64 0, i64 0
  %call7 = call ptr @strcpy(ptr noundef %arraydecay4, ptr noundef %arraydecay6) #6
  br label %if.end

if.end:                                           ; preds = %if.then, %entry
  ret ptr %this1
}

; Function Attrs: mustprogress nounwind uwtable
define linkonce_odr void @_ZN6icu_757UObjectC2ERKS0_(ptr noundef nonnull align 8 dereferenceable(8) %this, ptr noundef nonnull align 8 dereferenceable(8) %0) unnamed_addr #0 comdat align 2 {
entry:
  %this.addr = alloca ptr, align 8
  %.addr = alloca ptr, align 8
  store ptr %this, ptr %this.addr, align 8
  store ptr %0, ptr %.addr, align 8
  %this1 = load ptr, ptr %this.addr, align 8
  store ptr getelementptr inbounds ({ [5 x ptr] }, ptr @_ZTVN6icu_757UObjectE, i32 0, i32 0, i32 2), ptr %this1, align 8
  ret void
}

; Function Attrs: mustprogress uwtable
define void @_ZN6icu_756FormatC2ERKS0_(ptr noundef nonnull align 8 dereferenceable(322) %this, ptr noundef nonnull align 8 dereferenceable(322) %that) unnamed_addr #2 align 2 personality ptr @__gxx_personality_v0 {
entry:
  %this.addr = alloca ptr, align 8
  %that.addr = alloca ptr, align 8
  %exn.slot = alloca ptr, align 8
  %ehselector.slot = alloca i32, align 4
  store ptr %this, ptr %this.addr, align 8
  store ptr %that, ptr %that.addr, align 8
  %this1 = load ptr, ptr %this.addr, align 8
  %0 = load ptr, ptr %that.addr, align 8
  call void @_ZN6icu_757UObjectC2ERKS0_(ptr noundef nonnull align 8 dereferenceable(8) %this1, ptr noundef nonnull align 8 dereferenceable(8) %0) #6
  store ptr getelementptr inbounds ({ [10 x ptr] }, ptr @_ZTVN6icu_756FormatE, i32 0, i32 0, i32 2), ptr %this1, align 8
  %1 = load ptr, ptr %that.addr, align 8
  %call = invoke noundef nonnull align 8 dereferenceable(322) ptr @_ZN6icu_756FormataSERKS0_(ptr noundef nonnull align 8 dereferenceable(322) %this1, ptr noundef nonnull align 8 dereferenceable(322) %1)
          to label %invoke.cont unwind label %lpad

invoke.cont:                                      ; preds = %entry
  ret void

lpad:                                             ; preds = %entry
  %2 = landingpad { ptr, i32 }
          cleanup
  %3 = extractvalue { ptr, i32 } %2, 0
  store ptr %3, ptr %exn.slot, align 8
  %4 = extractvalue { ptr, i32 } %2, 1
  store i32 %4, ptr %ehselector.slot, align 4
  call void @_ZN6icu_757UObjectD2Ev(ptr noundef nonnull align 8 dereferenceable(8) %this1) #6
  br label %eh.resume

eh.resume:                                        ; preds = %lpad
  %exn = load ptr, ptr %exn.slot, align 8
  %sel = load i32, ptr %ehselector.slot, align 4
  %lpad.val = insertvalue { ptr, i32 } poison, ptr %exn, 0
  %lpad.val2 = insertvalue { ptr, i32 } %lpad.val, i32 %sel, 1
  resume { ptr, i32 } %lpad.val2
}