; Function Attrs: mustprogress nofree nounwind willreturn memory(argmem: readwrite) uwtable
define void @_ZN6icu_756FormatC2ERKS0_(ptr noundef nonnull align 8 dereferenceable(322) %this, ptr noundef nonnull readonly align 8 dereferenceable(322) %that) unnamed_addr #6 align 2 personality ptr @__gxx_personality_v0 {
entry:
  store ptr getelementptr inbounds ({ [10 x ptr] }, ptr @_ZTVN6icu_756FormatE, i64 0, i32 0, i64 2), ptr %this, align 8
  %cmp.not.i = icmp eq ptr %this, %that
  br i1 %cmp.not.i, label %_ZN6icu_756FormataSERKS0_.exit, label %if.then.i

if.then.i:                                        ; preds = %entry
  %validLocale.i = getelementptr inbounds i8, ptr %this, i64 165
  %validLocale2.i = getelementptr inbounds i8, ptr %that, i64 165
  %call.i = tail call ptr @strcpy(ptr noundef nonnull dereferenceable(1) %validLocale.i, ptr noundef nonnull dereferenceable(1) %validLocale2.i) #13
  %actualLocale.i = getelementptr inbounds i8, ptr %this, i64 8
  %actualLocale5.i = getelementptr inbounds i8, ptr %that, i64 8
  %call7.i = tail call ptr @strcpy(ptr noundef nonnull dereferenceable(1) %actualLocale.i, ptr noundef nonnull dereferenceable(1) %actualLocale5.i) #13
  br label %_ZN6icu_756FormataSERKS0_.exit

_ZN6icu_756FormataSERKS0_.exit:                   ; preds = %entry, %if.then.i
  ret void
}